target datalayout = "e-m:e-p270:32:32-p271:32:32-p272:64:64-i64:64-i128:128-f80:128-n8:16:32:64-S128"
target triple = "x86_64-pc-linux-gnu"

%union.pthread_mutex_t = type { %struct.__pthread_mutex_s }
%struct.__pthread_mutex_s = type { i32, i32, i32, i32, i32, i16, i16, %struct.__pthread_internal_list }
%struct.__pthread_internal_list = type { ptr, ptr }
%struct.pmix_tma = type { ptr, ptr, ptr, ptr, ptr, ptr, ptr, ptr }
%struct.pmix_mca_base_var_enum_t = type { %struct.pmix_object_t, i8, ptr, ptr, ptr, ptr, ptr, ptr, i32, ptr }
%struct.pmix_object_t = type { %union.pthread_mutex_t, ptr, i32, %struct.pmix_tma }
%struct.pmix_mca_base_var_enum_value_t = type { i32, ptr }

; Function Attrs: nounwind uwtable
define internal i32 @enum_string_from_value(ptr noundef %0, i32 noundef %1, ptr noundef %2) #0 {
  %4 = alloca i32, align 4
  %5 = alloca ptr, align 8
  %6 = alloca i32, align 4
  %7 = alloca ptr, align 8
  %8 = alloca i32, align 4
  %9 = alloca i32, align 4
  %10 = alloca i32, align 4
  %11 = alloca i32, align 4
  store ptr %0, ptr %5, align 8, !tbaa !3
  store i32 %1, ptr %6, align 4, !tbaa !24
  store ptr %2, ptr %7, align 8, !tbaa !47
  call void @llvm.lifetime.start.p0(i64 4, ptr %8) #13
  call void @llvm.lifetime.start.p0(i64 4, ptr %9) #13
  call void @llvm.lifetime.start.p0(i64 4, ptr %10) #13
  %12 = load ptr, ptr %5, align 8, !tbaa !3
  %13 = getelementptr inbounds nuw %struct.pmix_mca_base_var_enum_t, ptr %12, i32 0, i32 3
  %14 = load ptr, ptr %13, align 8, !tbaa !17
  %15 = load ptr, ptr %5, align 8, !tbaa !3
  %16 = call i32 %14(ptr noundef %15, ptr noundef %8)
  store i32 %16, ptr %9, align 4, !tbaa !24
  %17 = load i32, ptr %9, align 4, !tbaa !24
  %18 = icmp ne i32 0, %17
  br i1 %18, label %19, label %21

19:                                               ; preds = %3
  %20 = load i32, ptr %9, align 4, !tbaa !24
  store i32 %20, ptr %4, align 4
  store i32 1, ptr %11, align 4
  br label %62

21:                                               ; preds = %3
  store i32 0, ptr %10, align 4, !tbaa !24
  br label %22

22:                                               ; preds = %39, %21
  %23 = load i32, ptr %10, align 4, !tbaa !24
  %24 = load i32, ptr %8, align 4, !tbaa !24
  %25 = icmp slt i32 %23, %24
  br i1 %25, label %26, label %42

26:                                               ; preds = %22
  %27 = load i32, ptr %6, align 4, !tbaa !24
  %28 = load ptr, ptr %5, align 8, !tbaa !3
  %29 = getelementptr inbounds nuw %struct.pmix_mca_base_var_enum_t, ptr %28, i32 0, i32 9
  %30 = load ptr, ptr %29, align 8, !tbaa !23
  %31 = load i32, ptr %10, align 4, !tbaa !24
  %32 = sext i32 %31 to i64
  %33 = getelementptr inbounds %struct.pmix_mca_base_var_enum_value_t, ptr %30, i64 %32
  %34 = getelementptr inbounds nuw %struct.pmix_mca_base_var_enum_value_t, ptr %33, i32 0, i32 0
  %35 = load i32, ptr %34, align 8, !tbaa !51
  %36 = icmp eq i32 %27, %35
  br i1 %36, label %37, label %38

37:                                               ; preds = %26
  br label %42

38:                                               ; preds = %26
  br label %39

39:                                               ; preds = %38
  %40 = load i32, ptr %10, align 4, !tbaa !24
  %41 = add nsw i32 %40, 1
  store i32 %41, ptr %10, align 4, !tbaa !24
  br label %22, !llvm.loop !99

42:                                               ; preds = %37, %22
  %43 = load i32, ptr %10, align 4, !tbaa !24
  %44 = load i32, ptr %8, align 4, !tbaa !24
  %45 = icmp eq i32 %43, %44
  br i1 %45, label %46, label %47

46:                                               ; preds = %42
  store i32 -65, ptr %4, align 4
  store i32 1, ptr %11, align 4
  br label %62

47:                                               ; preds = %42
  %48 = load ptr, ptr %7, align 8, !tbaa !47
  %49 = icmp ne ptr %48, null
  br i1 %49, label %50, label %61

50:                                               ; preds = %47
  %51 = load ptr, ptr %5, align 8, !tbaa !3
  %52 = getelementptr inbounds nuw %struct.pmix_mca_base_var_enum_t, ptr %51, i32 0, i32 9
  %53 = load ptr, ptr %52, align 8, !tbaa !23
  %54 = load i32, ptr %10, align 4, !tbaa !24
  %55 = sext i32 %54 to i64
  %56 = getelementptr inbounds %struct.pmix_mca_base_var_enum_value_t, ptr %53, i64 %55
  %57 = getelementptr inbounds nuw %struct.pmix_mca_base_var_enum_value_t, ptr %56, i32 0, i32 1
  %58 = load ptr, ptr %57, align 8, !tbaa !26
  %59 = call noalias ptr @strdup(ptr noundef %58) #13
  %60 = load ptr, ptr %7, align 8, !tbaa !47
  store ptr %59, ptr %60, align 8, !tbaa !49
  br label %61

61:                                               ; preds = %50, %47
  store i32 0, ptr %4, align 4
  store i32 1, ptr %11, align 4
  br label %62

62:                                               ; preds = %61, %46, %19
  call void @llvm.lifetime.end.p0(i64 4, ptr %10) #13
  call void @llvm.lifetime.end.p0(i64 4, ptr %9) #13
  call void @llvm.lifetime.end.p0(i64 4, ptr %8) #13
  %63 = load i32, ptr %4, align 4
  ret i32 %63
}