; Function Attrs: nounwind uwtable
define internal i32 @enum_string_from_value(ptr noundef %0, i32 noundef %1, ptr noundef writeonly captures(address_is_null) %2) #1 {
  %4 = alloca i32, align 4
  call void @llvm.lifetime.start.p0(i64 4, ptr nonnull %4) #21
  %5 = getelementptr inbounds nuw i8, ptr %0, i64 136
  %6 = load ptr, ptr %5, align 8, !tbaa !15
  %7 = call i32 %6(ptr noundef %0, ptr noundef nonnull %4) #21
  %.not = icmp eq i32 %7, 0
  br i1 %.not, label %.preheader, label %._crit_edge.thread

.preheader:                                       ; preds = %3
  %8 = load i32, ptr %4, align 4, !tbaa !40
  %9 = icmp sgt i32 %8, 0
  br i1 %9, label %.lr.ph, label %._crit_edge

.lr.ph:                                           ; preds = %.preheader
  %10 = getelementptr inbounds nuw i8, ptr %0, i64 184
  %11 = load ptr, ptr %10, align 8, !tbaa !21
  %wide.trip.count = zext nneg i32 %8 to i64
  br label %12

12:                                               ; preds = %.lr.ph, %16
  %indvars.iv = phi i64 [ 0, %.lr.ph ], [ %indvars.iv.next, %16 ]
  %13 = getelementptr inbounds nuw %struct.pmix_mca_base_var_enum_value_t, ptr %11, i64 %indvars.iv
  %14 = load i32, ptr %13, align 8, !tbaa !43
  %15 = icmp eq i32 %1, %14
  br i1 %15, label %._crit_edge.loopexit, label %16

16:                                               ; preds = %12
  %indvars.iv.next = add nuw nsw i64 %indvars.iv, 1
  %exitcond.not = icmp eq i64 %indvars.iv.next, %wide.trip.count
  br i1 %exitcond.not, label %._crit_edge.thread, label %12, !llvm.loop !71

._crit_edge.loopexit:                             ; preds = %12
  %17 = trunc nuw nsw i64 %indvars.iv to i32
  br label %._crit_edge

._crit_edge:                                      ; preds = %._crit_edge.loopexit, %.preheader
  %.0.lcssa = phi i32 [ 0, %.preheader ], [ %17, %._crit_edge.loopexit ]
  %18 = icmp eq i32 %.0.lcssa, %8
  br i1 %18, label %._crit_edge.thread, label %19

19:                                               ; preds = %._crit_edge
  %.not17 = icmp eq ptr %2, null
  br i1 %.not17, label %._crit_edge.thread, label %20

20:                                               ; preds = %19
  %21 = getelementptr inbounds nuw i8, ptr %0, i64 184
  %22 = load ptr, ptr %21, align 8, !tbaa !21
  %23 = zext nneg i32 %.0.lcssa to i64
  %24 = getelementptr inbounds nuw %struct.pmix_mca_base_var_enum_value_t, ptr %22, i64 %23, i32 1
  %25 = load ptr, ptr %24, align 8, !tbaa !23
  %26 = call noalias ptr @strdup(ptr noundef %25) #21
  store ptr %26, ptr %2, align 8, !tbaa !41
  br label %._crit_edge.thread

._crit_edge.thread:                               ; preds = %16, %19, %20, %._crit_edge, %3
  %.014 = phi i32 [ %7, %3 ], [ -65, %._crit_edge ], [ 0, %20 ], [ 0, %19 ], [ -65, %16 ]
  call void @llvm.lifetime.end.p0(i64 4, ptr nonnull %4) #21
  ret i32 %.014
}